target datalayout = "e-m:e-p270:32:32-p271:32:32-p272:64:64-i64:64-i128:128-f80:128-n8:16:32:64-S128"
target triple = "x86_64-pc-linux-gnu"

%struct.Node = type { i32 }
%struct.Var = type { %struct.Expr, i32, i16, i32, i32, i32, ptr, i32, i32, i32, i16, i32 }
%struct.Expr = type { i32 }
%struct.PlaceHolderVar = type { %struct.Expr, ptr, ptr, ptr, i32, i32 }
%struct.List = type { i32, i32, i32, ptr, [0 x %union.ListCell] }
%union.ListCell = type { ptr }
%struct.ForEachState = type { ptr, i32 }
%struct.FuncExpr = type { %struct.Expr, i32, i32, i8, i8, i32, i32, i32, ptr, i32 }
%struct.RelabelType = type { %struct.Expr, ptr, i32, i32, i32, i32, i32 }
%struct.CoerceViaIO = type { %struct.Expr, ptr, i32, i32, i32, i32 }
%struct.ArrayCoerceExpr = type { %struct.Expr, ptr, ptr, i32, i32, i32, i32, i32 }
%struct.CoalesceExpr = type { %struct.Expr, i32, i32, ptr, i32 }

; Function Attrs: inlinehint nounwind uwtable
define internal ptr @list_nth_cell(ptr noundef %0, i32 noundef %1) #4 {
  %3 = alloca ptr, align 8
  %4 = alloca i32, align 4
  store ptr %0, ptr %3, align 8
  store i32 %1, ptr %4, align 4
  %5 = load ptr, ptr %3, align 8
  %6 = getelementptr inbounds nuw %struct.List, ptr %5, i32 0, i32 3
  %7 = load ptr, ptr %6, align 8
  %8 = load i32, ptr %4, align 4
  %9 = sext i32 %8 to i64
  %10 = getelementptr inbounds %union.ListCell, ptr %7, i64 %9
  ret ptr %10
}

; Function Attrs: nounwind uwtable
define internal void @adjust_standard_join_alias_expression(ptr noundef %0, ptr noundef %1) #0 {
  %3 = alloca ptr, align 8
  %4 = alloca ptr, align 8
  %5 = alloca ptr, align 8
  %6 = alloca ptr, align 8
  %7 = alloca ptr, align 8
  %8 = alloca ptr, align 8
  %9 = alloca ptr, align 8
  %10 = alloca ptr, align 8
  %11 = alloca ptr, align 8
  %12 = alloca ptr, align 8
  %13 = alloca %struct.ForEachState, align 8
  store ptr %0, ptr %3, align 8
  store ptr %1, ptr %4, align 8
  %14 = load ptr, ptr %3, align 8
  %15 = getelementptr inbounds nuw %struct.Node, ptr %14, i32 0, i32 0
  %16 = load i32, ptr %15, align 4
  %17 = icmp eq i32 %16, 6
  br i1 %17, label %18, label %37

18:                                               ; preds = %2
  %19 = load ptr, ptr %3, align 8
  %20 = getelementptr inbounds nuw %struct.Var, ptr %19, i32 0, i32 7
  %21 = load i32, ptr %20, align 8
  %22 = load ptr, ptr %4, align 8
  %23 = getelementptr inbounds nuw %struct.Var, ptr %22, i32 0, i32 7
  %24 = load i32, ptr %23, align 8
  %25 = icmp eq i32 %21, %24
  br i1 %25, label %26, label %37

26:                                               ; preds = %18
  call void @llvm.lifetime.start.p0(i64 8, ptr %5) #6
  %27 = load ptr, ptr %3, align 8
  store ptr %27, ptr %5, align 8
  %28 = load ptr, ptr %5, align 8
  %29 = getelementptr inbounds nuw %struct.Var, ptr %28, i32 0, i32 6
  %30 = load ptr, ptr %29, align 8
  %31 = load ptr, ptr %4, align 8
  %32 = getelementptr inbounds nuw %struct.Var, ptr %31, i32 0, i32 6
  %33 = load ptr, ptr %32, align 8
  %34 = call ptr @bms_add_members(ptr noundef %30, ptr noundef %33)
  %35 = load ptr, ptr %5, align 8
  %36 = getelementptr inbounds nuw %struct.Var, ptr %35, i32 0, i32 6
  store ptr %34, ptr %36, align 8
  call void @llvm.lifetime.end.p0(i64 8, ptr %5) #6
  br label %162

37:                                               ; preds = %18, %2
  %38 = load ptr, ptr %3, align 8
  %39 = getelementptr inbounds nuw %struct.Node, ptr %38, i32 0, i32 0
  %40 = load i32, ptr %39, align 4
  %41 = icmp eq i32 %40, 318
  br i1 %41, label %42, label %61

42:                                               ; preds = %37
  %43 = load ptr, ptr %3, align 8
  %44 = getelementptr inbounds nuw %struct.PlaceHolderVar, ptr %43, i32 0, i32 5
  %45 = load i32, ptr %44, align 4
  %46 = load ptr, ptr %4, align 8
  %47 = getelementptr inbounds nuw %struct.Var, ptr %46, i32 0, i32 7
  %48 = load i32, ptr %47, align 8
  %49 = icmp eq i32 %45, %48
  br i1 %49, label %50, label %61

50:                                               ; preds = %42
  call void @llvm.lifetime.start.p0(i64 8, ptr %6) #6
  %51 = load ptr, ptr %3, align 8
  store ptr %51, ptr %6, align 8
  %52 = load ptr, ptr %6, align 8
  %53 = getelementptr inbounds nuw %struct.PlaceHolderVar, ptr %52, i32 0, i32 3
  %54 = load ptr, ptr %53, align 8
  %55 = load ptr, ptr %4, align 8
  %56 = getelementptr inbounds nuw %struct.Var, ptr %55, i32 0, i32 6
  %57 = load ptr, ptr %56, align 8
  %58 = call ptr @bms_add_members(ptr noundef %54, ptr noundef %57)
  %59 = load ptr, ptr %6, align 8
  %60 = getelementptr inbounds nuw %struct.PlaceHolderVar, ptr %59, i32 0, i32 3
  store ptr %58, ptr %60, align 8
  call void @llvm.lifetime.end.p0(i64 8, ptr %6) #6
  br label %161

61:                                               ; preds = %42, %37
  %62 = load ptr, ptr %3, align 8
  %63 = getelementptr inbounds nuw %struct.Node, ptr %62, i32 0, i32 0
  %64 = load i32, ptr %63, align 4
  %65 = icmp eq i32 %64, 15
  br i1 %65, label %66, label %74

66:                                               ; preds = %61
  call void @llvm.lifetime.start.p0(i64 8, ptr %7) #6
  %67 = load ptr, ptr %3, align 8
  store ptr %67, ptr %7, align 8
  %68 = load ptr, ptr %7, align 8
  %69 = getelementptr inbounds nuw %struct.FuncExpr, ptr %68, i32 0, i32 8
  %70 = load ptr, ptr %69, align 8
  %71 = call ptr @list_nth_cell(ptr noundef %70, i32 noundef 0)
  %72 = load ptr, ptr %71, align 8
  %73 = load ptr, ptr %4, align 8
  call void @adjust_standard_join_alias_expression(ptr noundef %72, ptr noundef %73)
  call void @llvm.lifetime.end.p0(i64 8, ptr %7) #6
  br label %160

74:                                               ; preds = %61
  %75 = load ptr, ptr %3, align 8
  %76 = getelementptr inbounds nuw %struct.Node, ptr %75, i32 0, i32 0
  %77 = load i32, ptr %76, align 4
  %78 = icmp eq i32 %77, 27
  br i1 %78, label %79, label %85

79:                                               ; preds = %74
  call void @llvm.lifetime.start.p0(i64 8, ptr %8) #6
  %80 = load ptr, ptr %3, align 8
  store ptr %80, ptr %8, align 8
  %81 = load ptr, ptr %8, align 8
  %82 = getelementptr inbounds nuw %struct.RelabelType, ptr %81, i32 0, i32 1
  %83 = load ptr, ptr %82, align 8
  %84 = load ptr, ptr %4, align 8
  call void @adjust_standard_join_alias_expression(ptr noundef %83, ptr noundef %84)
  call void @llvm.lifetime.end.p0(i64 8, ptr %8) #6
  br label %159

85:                                               ; preds = %74
  %86 = load ptr, ptr %3, align 8
  %87 = getelementptr inbounds nuw %struct.Node, ptr %86, i32 0, i32 0
  %88 = load i32, ptr %87, align 4
  %89 = icmp eq i32 %88, 28
  br i1 %89, label %90, label %96

90:                                               ; preds = %85
  call void @llvm.lifetime.start.p0(i64 8, ptr %9) #6
  %91 = load ptr, ptr %3, align 8
  store ptr %91, ptr %9, align 8
  %92 = load ptr, ptr %9, align 8
  %93 = getelementptr inbounds nuw %struct.CoerceViaIO, ptr %92, i32 0, i32 1
  %94 = load ptr, ptr %93, align 8
  %95 = load ptr, ptr %4, align 8
  call void @adjust_standard_join_alias_expression(ptr noundef %94, ptr noundef %95)
  call void @llvm.lifetime.end.p0(i64 8, ptr %9) #6
  br label %158

96:                                               ; preds = %85
  %97 = load ptr, ptr %3, align 8
  %98 = getelementptr inbounds nuw %struct.Node, ptr %97, i32 0, i32 0
  %99 = load i32, ptr %98, align 4
  %100 = icmp eq i32 %99, 29
  br i1 %100, label %101, label %107

101:                                              ; preds = %96
  call void @llvm.lifetime.start.p0(i64 8, ptr %10) #6
  %102 = load ptr, ptr %3, align 8
  store ptr %102, ptr %10, align 8
  %103 = load ptr, ptr %10, align 8
  %104 = getelementptr inbounds nuw %struct.ArrayCoerceExpr, ptr %103, i32 0, i32 1
  %105 = load ptr, ptr %104, align 8
  %106 = load ptr, ptr %4, align 8
  call void @adjust_standard_join_alias_expression(ptr noundef %105, ptr noundef %106)
  call void @llvm.lifetime.end.p0(i64 8, ptr %10) #6
  br label %157

107:                                              ; preds = %96
  %108 = load ptr, ptr %3, align 8
  %109 = getelementptr inbounds nuw %struct.Node, ptr %108, i32 0, i32 0
  %110 = load i32, ptr %109, align 4
  %111 = icmp eq i32 %110, 38
  br i1 %111, label %112, label %155

112:                                              ; preds = %107
  call void @llvm.lifetime.start.p0(i64 8, ptr %11) #6
  %113 = load ptr, ptr %3, align 8
  store ptr %113, ptr %11, align 8
  call void @llvm.lifetime.start.p0(i64 8, ptr %12) #6
  call void @llvm.lifetime.start.p0(i64 16, ptr %13) #6
  %114 = getelementptr inbounds nuw %struct.ForEachState, ptr %13, i32 0, i32 0
  %115 = load ptr, ptr %11, align 8
  %116 = getelementptr inbounds nuw %struct.CoalesceExpr, ptr %115, i32 0, i32 3
  %117 = load ptr, ptr %116, align 8
  store ptr %117, ptr %114, align 8
  %118 = getelementptr inbounds nuw %struct.ForEachState, ptr %13, i32 0, i32 1
  store i32 0, ptr %118, align 8
  %119 = getelementptr i8, ptr %13, i64 12
  call void @llvm.memset.p0.i64(ptr align 4 %119, i8 0, i64 4, i1 false)
  br label %120

120:                                              ; preds = %150, %112
  %121 = getelementptr inbounds nuw %struct.ForEachState, ptr %13, i32 0, i32 0
  %122 = load ptr, ptr %121, align 8
  %123 = icmp ne ptr %122, null
  br i1 %123, label %124, label %141

124:                                              ; preds = %120
  %125 = getelementptr inbounds nuw %struct.ForEachState, ptr %13, i32 0, i32 1
  %126 = load i32, ptr %125, align 8
  %127 = getelementptr inbounds nuw %struct.ForEachState, ptr %13, i32 0, i32 0
  %128 = load ptr, ptr %127, align 8
  %129 = getelementptr inbounds nuw %struct.List, ptr %128, i32 0, i32 1
  %130 = load i32, ptr %129, align 4
  %131 = icmp slt i32 %126, %130
  br i1 %131, label %132, label %141

132:                                              ; preds = %124
  %133 = getelementptr inbounds nuw %struct.ForEachState, ptr %13, i32 0, i32 0
  %134 = load ptr, ptr %133, align 8
  %135 = getelementptr inbounds nuw %struct.List, ptr %134, i32 0, i32 3
  %136 = load ptr, ptr %135, align 8
  %137 = getelementptr inbounds nuw %struct.ForEachState, ptr %13, i32 0, i32 1
  %138 = load i32, ptr %137, align 8
  %139 = sext i32 %138 to i64
  %140 = getelementptr inbounds %union.ListCell, ptr %136, i64 %139
  store ptr %140, ptr %12, align 8
  br label %142

141:                                              ; preds = %124, %120
  store ptr null, ptr %12, align 8
  br label %142

142:                                              ; preds = %141, %132
  %143 = phi i32 [ 1, %132 ], [ 0, %141 ]
  %144 = icmp ne i32 %143, 0
  br i1 %144, label %146, label %145

145:                                              ; preds = %142
  call void @llvm.lifetime.end.p0(i64 16, ptr %13) #6
  br label %154

146:                                              ; preds = %142
  %147 = load ptr, ptr %12, align 8
  %148 = load ptr, ptr %147, align 8
  %149 = load ptr, ptr %4, align 8
  call void @adjust_standard_join_alias_expression(ptr noundef %148, ptr noundef %149)
  br label %150

150:                                              ; preds = %146
  %151 = getelementptr inbounds nuw %struct.ForEachState, ptr %13, i32 0, i32 1
  %152 = load i32, ptr %151, align 8
  %153 = add i32 %152, 1
  store i32 %153, ptr %151, align 8
  br label %120, !llvm.loop !10

154:                                              ; preds = %145
  call void @llvm.lifetime.end.p0(i64 8, ptr %12) #6
  call void @llvm.lifetime.end.p0(i64 8, ptr %11) #6
  br label %156

155:                                              ; preds = %107
  br label %156

156:                                              ; preds = %155, %154
  br label %157

157:                                              ; preds = %156, %101
  br label %158

158:                                              ; preds = %157, %90
  br label %159

159:                                              ; preds = %158, %79
  br label %160

160:                                              ; preds = %159, %66
  br label %161

161:                                              ; preds = %160, %50
  br label %162

162:                                              ; preds = %161, %26
  ret void
}