; Function Attrs: nounwind uwtable
define internal fastcc void @adjust_standard_join_alias_expression(ptr noundef captures(none) %0, ptr noundef nonnull readonly captures(none) %1) unnamed_addr #0 {
  br label %tailrecurse

tailrecurse:                                      ; preds = %tailrecurse.backedge, %2
  %.tr = phi ptr [ %0, %2 ], [ %.tr.be, %tailrecurse.backedge ]
  %3 = load i32, ptr %.tr, align 4
  switch i32 %3, label %.thread42 [
    i32 6, label %4
    i32 318, label %10
    i32 15, label %16
    i32 27, label %20
    i32 28, label %22
    i32 29, label %24
    i32 38, label %26
  ]

4:                                                ; preds = %tailrecurse
  %5 = getelementptr inbounds nuw i8, ptr %.tr, i64 32
  %6 = load i32, ptr %5, align 8
  %7 = getelementptr inbounds nuw i8, ptr %1, i64 32
  %8 = load i32, ptr %7, align 8
  %9 = icmp eq i32 %6, %8
  br i1 %9, label %.thread42.sink.split, label %.thread42

10:                                               ; preds = %tailrecurse
  %11 = getelementptr inbounds nuw i8, ptr %.tr, i64 36
  %12 = load i32, ptr %11, align 4
  %13 = getelementptr inbounds nuw i8, ptr %1, i64 32
  %14 = load i32, ptr %13, align 8
  %15 = icmp eq i32 %12, %14
  br i1 %15, label %.thread42.sink.split, label %.thread42

16:                                               ; preds = %tailrecurse
  %17 = getelementptr inbounds nuw i8, ptr %.tr, i64 32
  %18 = load ptr, ptr %17, align 8
  %19 = getelementptr i8, ptr %18, i64 16
  %.val = load ptr, ptr %19, align 8
  br label %tailrecurse.backedge

tailrecurse.backedge:                             ; preds = %16, %20, %22, %24
  %.tr.be.in = phi ptr [ %.val, %16 ], [ %21, %20 ], [ %23, %22 ], [ %25, %24 ]
  %.tr.be = load ptr, ptr %.tr.be.in, align 8
  br label %tailrecurse

20:                                               ; preds = %tailrecurse
  %21 = getelementptr inbounds nuw i8, ptr %.tr, i64 8
  br label %tailrecurse.backedge

22:                                               ; preds = %tailrecurse
  %23 = getelementptr inbounds nuw i8, ptr %.tr, i64 8
  br label %tailrecurse.backedge

24:                                               ; preds = %tailrecurse
  %25 = getelementptr inbounds nuw i8, ptr %.tr, i64 8
  br label %tailrecurse.backedge

26:                                               ; preds = %tailrecurse
  %27 = getelementptr inbounds nuw i8, ptr %.tr, i64 16
  %28 = load ptr, ptr %27, align 8
  %29 = getelementptr inbounds nuw i8, ptr %28, i64 4
  %.not = icmp eq ptr %28, null
  br i1 %.not, label %.thread42, label %.lr.ph

.lr.ph:                                           ; preds = %26
  %30 = getelementptr inbounds nuw i8, ptr %28, i64 16
  %31 = load i32, ptr %29, align 4
  %32 = icmp sgt i32 %31, 0
  br i1 %32, label %.lr.ph55, label %.thread42

.lr.ph55:                                         ; preds = %.lr.ph, %.lr.ph55
  %indvars.iv = phi i64 [ %indvars.iv.next, %.lr.ph55 ], [ 0, %.lr.ph ]
  %33 = load ptr, ptr %30, align 8
  %34 = getelementptr inbounds nuw %union.ListCell, ptr %33, i64 %indvars.iv
  %35 = load ptr, ptr %34, align 8
  tail call fastcc void @adjust_standard_join_alias_expression(ptr noundef %35, ptr noundef %1)
  %indvars.iv.next = add nuw nsw i64 %indvars.iv, 1
  %36 = load i32, ptr %29, align 4
  %37 = sext i32 %36 to i64
  %38 = icmp slt i64 %indvars.iv.next, %37
  br i1 %38, label %.lr.ph55, label %.thread42

.thread42.sink.split:                             ; preds = %10, %4
  %39 = getelementptr inbounds nuw i8, ptr %.tr, i64 24
  %40 = load ptr, ptr %39, align 8
  %41 = getelementptr inbounds nuw i8, ptr %1, i64 24
  %42 = load ptr, ptr %41, align 8
  %43 = tail call ptr @bms_add_members(ptr noundef %40, ptr noundef %42) #6
  store ptr %43, ptr %39, align 8
  br label %.thread42

.thread42:                                        ; preds = %tailrecurse, %.lr.ph55, %.thread42.sink.split, %26, %.lr.ph, %4, %10
  ret void
}